; Function Attrs: nounwind uwtable
define internal void @dt_control_datetime_job_cleanup(ptr noundef captures(none) %0) #0 {
  %2 = getelementptr inbounds nuw i8, ptr %0, i64 16
  %3 = load ptr, ptr %2, align 8, !tbaa !52
  tail call void @free(ptr noundef %3) #17
  %4 = load ptr, ptr %0, align 8, !tbaa !50
  tail call void @g_list_free(ptr noundef %4) #17
  store ptr null, ptr %0, align 8, !tbaa !50
  %5 = getelementptr inbounds nuw i8, ptr %0, i64 24
  %6 = load i32, ptr %5, align 8, !tbaa !48
  %.not.i = icmp eq i32 %6, 0
  br i1 %.not.i, label %dt_control_image_enumerator_cleanup.exit, label %7

7:                                                ; preds = %1
  tail call void @g_main_context_invoke(ptr noundef null, ptr noundef nonnull @_cursor_clear_busy, ptr noundef null) #17
  br label %dt_control_image_enumerator_cleanup.exit

dt_control_image_enumerator_cleanup.exit:         ; preds = %1, %7
  tail call void @free(ptr noundef nonnull %0) #17
  ret void
}